target datalayout = "e-m:e-p270:32:32-p271:32:32-p272:64:64-i64:64-i128:128-f80:128-n8:16:32:64-S128"
target triple = "x86_64-unknown-linux-gnu"

%"struct.std::thread::_State" = type { ptr }
%"class.absl::Mutex" = type { %"struct.std::atomic.45" }
%"struct.std::atomic.45" = type { %"struct.std::__atomic_base.46" }
%"struct.std::__atomic_base.46" = type { i64 }
%class.anon = type { ptr }
%"struct.std::thread::_State_impl.47" = type { %"struct.std::thread::_State", %"struct.std::thread::_Invoker.48" }
%"struct.std::thread::_Invoker.48" = type { %"class.std::tuple.49" }
%"class.std::tuple.49" = type { %"struct.std::_Tuple_impl.50" }
%"struct.std::_Tuple_impl.50" = type { %"struct.std::_Head_base.51" }
%"struct.std::_Head_base.51" = type { %class.anon }
%"class.absl::MutexLock" = type { ptr }

; Function Attrs: mustprogress nounwind uwtable
define linkonce_odr dso_local void @_ZN4absl9MutexLockD2Ev(ptr noundef nonnull align 8 dereferenceable(8) %this) unnamed_addr #7 comdat align 2 personality ptr @__gxx_personality_v0 {
entry:
  %this.addr = alloca ptr, align 8
  store ptr %this, ptr %this.addr, align 8
  %this1 = load ptr, ptr %this.addr, align 8
  %mu_ = getelementptr inbounds %"class.absl::MutexLock", ptr %this1, i32 0, i32 0
  %0 = load ptr, ptr %mu_, align 8
  invoke void @_ZN4absl5Mutex6UnlockEv(ptr noundef nonnull align 8 dereferenceable(8) %0)
          to label %invoke.cont unwind label %terminate.lpad

invoke.cont:                                      ; preds = %entry
  ret void

terminate.lpad:                                   ; preds = %entry
  %1 = landingpad { ptr, i32 }
          catch ptr null
  %2 = extractvalue { ptr, i32 } %1, 0
  call void @__clang_call_terminate(ptr %2) #17
  unreachable
}

; Function Attrs: mustprogress uwtable
define linkonce_odr dso_local void @_ZN4absl9MutexLockC2EPNS_5MutexE(ptr noundef nonnull align 8 dereferenceable(8) %this, ptr noundef %mu) unnamed_addr #4 comdat align 2 {
entry:
  %this.addr = alloca ptr, align 8
  %mu.addr = alloca ptr, align 8
  store ptr %this, ptr %this.addr, align 8
  store ptr %mu, ptr %mu.addr, align 8
  %this1 = load ptr, ptr %this.addr, align 8
  %mu_ = getelementptr inbounds %"class.absl::MutexLock", ptr %this1, i32 0, i32 0
  %0 = load ptr, ptr %mu.addr, align 8
  store ptr %0, ptr %mu_, align 8
  %mu_2 = getelementptr inbounds %"class.absl::MutexLock", ptr %this1, i32 0, i32 0
  %1 = load ptr, ptr %mu_2, align 8
  call void @_ZN4absl5Mutex4LockEv(ptr noundef nonnull align 8 dereferenceable(8) %1)
  ret void
}

; Function Attrs: mustprogress nounwind uwtable
define internal noundef nonnull align 8 dereferenceable(8) ptr @"_ZNSt10_Head_baseILm0EZN4absl13base_internal12_GLOBAL__N_153ThreadIdentityTest_ReusedThreadIdentityMutexTest_Test8TestBodyEvE3$_0Lb0EE7_M_headERS5_"(ptr noundef nonnull align 8 dereferenceable(8) %__b) #7 align 2 {
entry:
  %__b.addr = alloca ptr, align 8
  store ptr %__b, ptr %__b.addr, align 8
  %0 = load ptr, ptr %__b.addr, align 8
  %_M_head_impl = getelementptr inbounds %"struct.std::_Head_base.51", ptr %0, i32 0, i32 0
  ret ptr %_M_head_impl
}

; Function Attrs: mustprogress uwtable
define internal void @"_ZZN4absl13base_internal12_GLOBAL__N_153ThreadIdentityTest_ReusedThreadIdentityMutexTest_Test8TestBodyEvENK3$_0clEv"(ptr noundef nonnull align 8 dereferenceable(8) %this) #4 align 2 {
entry:
  %this.addr = alloca ptr, align 8
  %l = alloca i32, align 4
  %m = alloca i32, align 4
  %lock = alloca %"class.absl::MutexLock", align 8
  store ptr %this, ptr %this.addr, align 8
  %this1 = load ptr, ptr %this.addr, align 8
  store i32 0, ptr %l, align 4
  br label %for.cond

for.cond:                                         ; preds = %for.inc5, %entry
  %0 = load i32, ptr %l, align 4
  %cmp = icmp slt i32 %0, 5
  br i1 %cmp, label %for.body, label %for.end7

for.body:                                         ; preds = %for.cond
  store i32 0, ptr %m, align 4
  br label %for.cond2

for.cond2:                                        ; preds = %for.inc, %for.body
  %1 = load i32, ptr %m, align 4
  %cmp3 = icmp slt i32 %1, 3
  br i1 %cmp3, label %for.body4, label %for.end

for.body4:                                        ; preds = %for.cond2
  %2 = getelementptr inbounds %class.anon, ptr %this1, i32 0, i32 0
  %3 = load ptr, ptr %2, align 8
  %4 = load i32, ptr %m, align 4
  %idxprom = sext i32 %4 to i64
  %arrayidx = getelementptr inbounds [3 x %"class.absl::Mutex"], ptr %3, i64 0, i64 %idxprom
  call void @_ZN4absl9MutexLockC2EPNS_5MutexE(ptr noundef nonnull align 8 dereferenceable(8) %lock, ptr noundef %arrayidx)
  call void @_ZN4absl9MutexLockD2Ev(ptr noundef nonnull align 8 dereferenceable(8) %lock) #3
  br label %for.inc

for.inc:                                          ; preds = %for.body4
  %5 = load i32, ptr %m, align 4
  %inc = add nsw i32 %5, 1
  store i32 %inc, ptr %m, align 4
  br label %for.cond2, !llvm.loop !12

for.end:                                          ; preds = %for.cond2
  br label %for.inc5

for.inc5:                                         ; preds = %for.end
  %6 = load i32, ptr %l, align 4
  %inc6 = add nsw i32 %6, 1
  store i32 %inc6, ptr %l, align 4
  br label %for.cond, !llvm.loop !13

for.end7:                                         ; preds = %for.cond
  ret void
}

; Function Attrs: mustprogress nounwind uwtable
define internal noundef nonnull align 8 dereferenceable(8) ptr @"_ZNSt11_Tuple_implILm0EJZN4absl13base_internal12_GLOBAL__N_153ThreadIdentityTest_ReusedThreadIdentityMutexTest_Test8TestBodyEvE3$_0EE7_M_headERS5_"(ptr noundef nonnull align 8 dereferenceable(8) %__t) #7 align 2 {
entry:
  %__t.addr = alloca ptr, align 8
  store ptr %__t, ptr %__t.addr, align 8
  %0 = load ptr, ptr %__t.addr, align 8
  %call = call noundef nonnull align 8 dereferenceable(8) ptr @"_ZNSt10_Head_baseILm0EZN4absl13base_internal12_GLOBAL__N_153ThreadIdentityTest_ReusedThreadIdentityMutexTest_Test8TestBodyEvE3$_0Lb0EE7_M_headERS5_"(ptr noundef nonnull align 8 dereferenceable(8) %0) #3
  ret ptr %call
}

; Function Attrs: mustprogress uwtable
define internal void @"_ZSt13__invoke_implIvZN4absl13base_internal12_GLOBAL__N_153ThreadIdentityTest_ReusedThreadIdentityMutexTest_Test8TestBodyEvE3$_0JEET_St14__invoke_otherOT0_DpOT1_"(ptr noundef nonnull align 8 dereferenceable(8) %__f) #4 {
entry:
  %__f.addr = alloca ptr, align 8
  store ptr %__f, ptr %__f.addr, align 8
  %0 = load ptr, ptr %__f.addr, align 8
  call void @"_ZZN4absl13base_internal12_GLOBAL__N_153ThreadIdentityTest_ReusedThreadIdentityMutexTest_Test8TestBodyEvENK3$_0clEv"(ptr noundef nonnull align 8 dereferenceable(8) %0)
  ret void
}

; Function Attrs: mustprogress nounwind uwtable
define internal noundef nonnull align 8 dereferenceable(8) ptr @"_ZSt12__get_helperILm0EZN4absl13base_internal12_GLOBAL__N_153ThreadIdentityTest_ReusedThreadIdentityMutexTest_Test8TestBodyEvE3$_0JEERT0_RSt11_Tuple_implIXT_EJS5_DpT1_EE"(ptr noundef nonnull align 8 dereferenceable(8) %__t) #7 {
entry:
  %__t.addr = alloca ptr, align 8
  store ptr %__t, ptr %__t.addr, align 8
  %0 = load ptr, ptr %__t.addr, align 8
  %call = call noundef nonnull align 8 dereferenceable(8) ptr @"_ZNSt11_Tuple_implILm0EJZN4absl13base_internal12_GLOBAL__N_153ThreadIdentityTest_ReusedThreadIdentityMutexTest_Test8TestBodyEvE3$_0EE7_M_headERS5_"(ptr noundef nonnull align 8 dereferenceable(8) %0) #3
  ret ptr %call
}

; Function Attrs: mustprogress uwtable
define internal void @"_ZSt8__invokeIZN4absl13base_internal12_GLOBAL__N_153ThreadIdentityTest_ReusedThreadIdentityMutexTest_Test8TestBodyEvE3$_0JEENSt15__invoke_resultIT_JDpT0_EE4typeEOS6_DpOS7_"(ptr noundef nonnull align 8 dereferenceable(8) %__fn) #4 {
entry:
  %__fn.addr = alloca ptr, align 8
  store ptr %__fn, ptr %__fn.addr, align 8
  %0 = load ptr, ptr %__fn.addr, align 8
  call void @"_ZSt13__invoke_implIvZN4absl13base_internal12_GLOBAL__N_153ThreadIdentityTest_ReusedThreadIdentityMutexTest_Test8TestBodyEvE3$_0JEET_St14__invoke_otherOT0_DpOT1_"(ptr noundef nonnull align 8 dereferenceable(8) %0)
  ret void
}

; Function Attrs: mustprogress nounwind uwtable
define internal noundef nonnull align 8 dereferenceable(8) ptr @"_ZSt3getILm0EJZN4absl13base_internal12_GLOBAL__N_153ThreadIdentityTest_ReusedThreadIdentityMutexTest_Test8TestBodyEvE3$_0EEONSt13tuple_elementIXT_ESt5tupleIJDpT0_EEE4typeEOS9_"(ptr noundef nonnull align 8 dereferenceable(8) %__t) #7 {
entry:
  %__t.addr = alloca ptr, align 8
  store ptr %__t, ptr %__t.addr, align 8
  %0 = load ptr, ptr %__t.addr, align 8
  %call = call noundef nonnull align 8 dereferenceable(8) ptr @"_ZSt12__get_helperILm0EZN4absl13base_internal12_GLOBAL__N_153ThreadIdentityTest_ReusedThreadIdentityMutexTest_Test8TestBodyEvE3$_0JEERT0_RSt11_Tuple_implIXT_EJS5_DpT1_EE"(ptr noundef nonnull align 8 dereferenceable(8) %0) #3
  ret ptr %call
}

; Function Attrs: mustprogress uwtable
define internal void @"_ZNSt6thread8_InvokerISt5tupleIJZN4absl13base_internal12_GLOBAL__N_153ThreadIdentityTest_ReusedThreadIdentityMutexTest_Test8TestBodyEvE3$_0EEE9_M_invokeIJLm0EEEEvSt12_Index_tupleIJXspT_EEE"(ptr noundef nonnull align 8 dereferenceable(8) %this) #4 align 2 {
entry:
  %this.addr = alloca ptr, align 8
  store ptr %this, ptr %this.addr, align 8
  %this1 = load ptr, ptr %this.addr, align 8
  %_M_t = getelementptr inbounds %"struct.std::thread::_Invoker.48", ptr %this1, i32 0, i32 0
  %call = call noundef nonnull align 8 dereferenceable(8) ptr @"_ZSt3getILm0EJZN4absl13base_internal12_GLOBAL__N_153ThreadIdentityTest_ReusedThreadIdentityMutexTest_Test8TestBodyEvE3$_0EEONSt13tuple_elementIXT_ESt5tupleIJDpT0_EEE4typeEOS9_"(ptr noundef nonnull align 8 dereferenceable(8) %_M_t) #3
  call void @"_ZSt8__invokeIZN4absl13base_internal12_GLOBAL__N_153ThreadIdentityTest_ReusedThreadIdentityMutexTest_Test8TestBodyEvE3$_0JEENSt15__invoke_resultIT_JDpT0_EE4typeEOS6_DpOS7_"(ptr noundef nonnull align 8 dereferenceable(8) %call)
  ret void
}

; Function Attrs: mustprogress uwtable
define internal void @"_ZNSt6thread8_InvokerISt5tupleIJZN4absl13base_internal12_GLOBAL__N_153ThreadIdentityTest_ReusedThreadIdentityMutexTest_Test8TestBodyEvE3$_0EEEclEv"(ptr noundef nonnull align 8 dereferenceable(8) %this) #4 align 2 {
entry:
  %this.addr = alloca ptr, align 8
  store ptr %this, ptr %this.addr, align 8
  %this1 = load ptr, ptr %this.addr, align 8
  call void @"_ZNSt6thread8_InvokerISt5tupleIJZN4absl13base_internal12_GLOBAL__N_153ThreadIdentityTest_ReusedThreadIdentityMutexTest_Test8TestBodyEvE3$_0EEE9_M_invokeIJLm0EEEEvSt12_Index_tupleIJXspT_EEE"(ptr noundef nonnull align 8 dereferenceable(8) %this1)
  ret void
}

; Function Attrs: mustprogress uwtable
define internal void @"_ZNSt6thread11_State_implINS_8_InvokerISt5tupleIJZN4absl13base_internal12_GLOBAL__N_153ThreadIdentityTest_ReusedThreadIdentityMutexTest_Test8TestBodyEvE3$_0EEEEE6_M_runEv"(ptr noundef nonnull align 8 dereferenceable(16) %this) unnamed_addr #4 align 2 {
entry:
  %this.addr = alloca ptr, align 8
  store ptr %this, ptr %this.addr, align 8
  %this1 = load ptr, ptr %this.addr, align 8
  %_M_func = getelementptr inbounds %"struct.std::thread::_State_impl.47", ptr %this1, i32 0, i32 1
  call void @"_ZNSt6thread8_InvokerISt5tupleIJZN4absl13base_internal12_GLOBAL__N_153ThreadIdentityTest_ReusedThreadIdentityMutexTest_Test8TestBodyEvE3$_0EEEclEv"(ptr noundef nonnull align 8 dereferenceable(8) %_M_func)
  ret void
}