; Function Attrs: mustprogress uwtable
define internal void @"_ZNSt6thread11_State_implINS_8_InvokerISt5tupleIJZN4absl13base_internal12_GLOBAL__N_153ThreadIdentityTest_ReusedThreadIdentityMutexTest_Test8TestBodyEvE3$_0EEEEE6_M_runEv"(ptr nocapture noundef nonnull readonly align 8 dereferenceable(16) %this) unnamed_addr #3 align 2 personality ptr @__gxx_personality_v0 {
entry:
  %_M_func = getelementptr inbounds i8, ptr %this, i64 8
  br label %for.cond2.preheader.i.i.i.i.i

for.cond2.preheader.i.i.i.i.i:                    ; preds = %for.inc5.i.i.i.i.i, %entry
  %l.05.i.i.i.i.i = phi i32 [ 0, %entry ], [ %inc6.i.i.i.i.i, %for.inc5.i.i.i.i.i ]
  br label %for.body4.i.i.i.i.i

for.body4.i.i.i.i.i:                              ; preds = %_ZN4absl9MutexLockD2Ev.exit.i.i.i.i.i, %for.cond2.preheader.i.i.i.i.i
  %indvars.iv.i.i.i.i.i = phi i64 [ 0, %for.cond2.preheader.i.i.i.i.i ], [ %indvars.iv.next.i.i.i.i.i, %_ZN4absl9MutexLockD2Ev.exit.i.i.i.i.i ]
  %0 = load ptr, ptr %_M_func, align 8
  %arrayidx.i.i.i.i.i = getelementptr inbounds [3 x %"class.absl::Mutex"], ptr %0, i64 0, i64 %indvars.iv.i.i.i.i.i
  tail call void @_ZN4absl5Mutex4LockEv(ptr noundef nonnull align 8 dereferenceable(8) %arrayidx.i.i.i.i.i)
  invoke void @_ZN4absl5Mutex6UnlockEv(ptr noundef nonnull align 8 dereferenceable(8) %arrayidx.i.i.i.i.i)
          to label %_ZN4absl9MutexLockD2Ev.exit.i.i.i.i.i unwind label %terminate.lpad.i.i.i.i.i.i

terminate.lpad.i.i.i.i.i.i:                       ; preds = %for.body4.i.i.i.i.i
  %1 = landingpad { ptr, i32 }
          catch ptr null
  %2 = extractvalue { ptr, i32 } %1, 0
  tail call void @__clang_call_terminate(ptr %2) #20
  unreachable

_ZN4absl9MutexLockD2Ev.exit.i.i.i.i.i:            ; preds = %for.body4.i.i.i.i.i
  %indvars.iv.next.i.i.i.i.i = add nuw nsw i64 %indvars.iv.i.i.i.i.i, 1
  %exitcond.not.i.i.i.i.i = icmp eq i64 %indvars.iv.next.i.i.i.i.i, 3
  br i1 %exitcond.not.i.i.i.i.i, label %for.inc5.i.i.i.i.i, label %for.body4.i.i.i.i.i, !llvm.loop !60

for.inc5.i.i.i.i.i:                               ; preds = %_ZN4absl9MutexLockD2Ev.exit.i.i.i.i.i
  %inc6.i.i.i.i.i = add nuw nsw i32 %l.05.i.i.i.i.i, 1
  %exitcond7.not.i.i.i.i.i = icmp eq i32 %inc6.i.i.i.i.i, 5
  br i1 %exitcond7.not.i.i.i.i.i, label %"_ZNSt6thread8_InvokerISt5tupleIJZN4absl13base_internal12_GLOBAL__N_153ThreadIdentityTest_ReusedThreadIdentityMutexTest_Test8TestBodyEvE3$_0EEEclEv.exit", label %for.cond2.preheader.i.i.i.i.i, !llvm.loop !61

"_ZNSt6thread8_InvokerISt5tupleIJZN4absl13base_internal12_GLOBAL__N_153ThreadIdentityTest_ReusedThreadIdentityMutexTest_Test8TestBodyEvE3$_0EEEclEv.exit": ; preds = %for.inc5.i.i.i.i.i
  ret void
}